; ModuleID = '37/389.c'
source_filename = "37/389.c"
target datalayout = "e-m:e-p270:32:32-p271:32:32-p272:64:64-i64:64-f80:128-n8:16:32:64-S128"
target triple = "x86_64-pc-linux-gnu"

@.str = private unnamed_addr constant [3 x i8] c"%d\00", align 1
@.str.1 = private unnamed_addr constant [4 x i8] c"%c\0A\00", align 1
@.str.2 = private unnamed_addr constant [4 x i8] c"no\0A\00", align 1

; Function Attrs: noinline nounwind uwtable
define dso_local void @main() #0 {
  %1 = alloca i32, align 4
  %2 = alloca i32, align 4
  %3 = alloca i32, align 4
  %4 = alloca i32, align 4
  %5 = alloca i32, align 4
  %6 = alloca i32*, align 8
  %7 = alloca i8*, align 8
  %8 = call i32 (i8*, ...) @__isoc99_scanf(i8* getelementptr inbounds ([3 x i8], [3 x i8]* @.str, i64 0, i64 0), i32* %1)
  %9 = call noalias i8* @malloc(i64 800) #3
  %10 = bitcast i8* %9 to i32*
  store i32* %10, i32** %6, align 8
  %11 = call noalias i8* @malloc(i64 1000) #3
  store i8* %11, i8** %7, align 8
  %12 = load i8*, i8** %7, align 8
  %13 = call i32 (i8*, ...) bitcast (i32 (...)* @gets to i32 (i8*, ...)*)(i8* %12)
  store i32 1, i32* %2, align 4
  br label %14

14:                                               ; preds = %104, %0
  %15 = load i32, i32* %2, align 4
  %16 = load i32, i32* %1, align 4
  %17 = icmp sle i32 %15, %16
  br i1 %17, label %18, label %107

18:                                               ; preds = %14
  store i32 0, i32* %5, align 4
  store i32 97, i32* %4, align 4
  br label %19

19:                                               ; preds = %27, %18
  %20 = load i32, i32* %4, align 4
  %21 = icmp sle i32 %20, 122
  br i1 %21, label %22, label %30

22:                                               ; preds = %19
  %23 = load i32*, i32** %6, align 8
  %24 = load i32, i32* %4, align 4
  %25 = sext i32 %24 to i64
  %26 = getelementptr inbounds i32, i32* %23, i64 %25
  store i32 0, i32* %26, align 4
  br label %27

27:                                               ; preds = %22
  %28 = load i32, i32* %4, align 4
  %29 = add nsw i32 %28, 1
  store i32 %29, i32* %4, align 4
  br label %19

30:                                               ; preds = %19
  %31 = load i8*, i8** %7, align 8
  %32 = call i32 (i8*, ...) bitcast (i32 (...)* @gets to i32 (i8*, ...)*)(i8* %31)
  store i32 0, i32* %3, align 4
  br label %33

33:                                               ; preds = %62, %30
  %34 = load i8*, i8** %7, align 8
  %35 = load i32, i32* %3, align 4
  %36 = sext i32 %35 to i64
  %37 = getelementptr inbounds i8, i8* %34, i64 %36
  %38 = load i8, i8* %37, align 1
  %39 = sext i8 %38 to i32
  %40 = icmp ne i32 %39, 0
  br i1 %40, label %41, label %65

41:                                               ; preds = %33
  %42 = load i32*, i32** %6, align 8
  %43 = load i8*, i8** %7, align 8
  %44 = load i32, i32* %3, align 4
  %45 = sext i32 %44 to i64
  %46 = getelementptr inbounds i8, i8* %43, i64 %45
  %47 = load i8, i8* %46, align 1
  %48 = sext i8 %47 to i32
  %49 = sext i32 %48 to i64
  %50 = getelementptr inbounds i32, i32* %42, i64 %49
  %51 = load i32, i32* %50, align 4
  %52 = add nsw i32 %51, 1
  %53 = load i32*, i32** %6, align 8
  %54 = load i8*, i8** %7, align 8
  %55 = load i32, i32* %3, align 4
  %56 = sext i32 %55 to i64
  %57 = getelementptr inbounds i8, i8* %54, i64 %56
  %58 = load i8, i8* %57, align 1
  %59 = sext i8 %58 to i32
  %60 = sext i32 %59 to i64
  %61 = getelementptr inbounds i32, i32* %53, i64 %60
  store i32 %52, i32* %61, align 4
  br label %62

62:                                               ; preds = %41
  %63 = load i32, i32* %3, align 4
  %64 = add nsw i32 %63, 1
  store i32 %64, i32* %3, align 4
  br label %33

65:                                               ; preds = %33
  store i32 0, i32* %3, align 4
  br label %66

66:                                               ; preds = %95, %65
  %67 = load i8*, i8** %7, align 8
  %68 = load i32, i32* %3, align 4
  %69 = sext i32 %68 to i64
  %70 = getelementptr inbounds i8, i8* %67, i64 %69
  %71 = load i8, i8* %70, align 1
  %72 = sext i8 %71 to i32
  %73 = icmp ne i32 %72, 0
  br i1 %73, label %74, label %98

74:                                               ; preds = %66
  %75 = load i32*, i32** %6, align 8
  %76 = load i8*, i8** %7, align 8
  %77 = load i32, i32* %3, align 4
  %78 = sext i32 %77 to i64
  %79 = getelementptr inbounds i8, i8* %76, i64 %78
  %80 = load i8, i8* %79, align 1
  %81 = sext i8 %80 to i32
  %82 = sext i32 %81 to i64
  %83 = getelementptr inbounds i32, i32* %75, i64 %82
  %84 = load i32, i32* %83, align 4
  %85 = icmp eq i32 %84, 1
  br i1 %85, label %86, label %94

86:                                               ; preds = %74
  %87 = load i8*, i8** %7, align 8
  %88 = load i32, i32* %3, align 4
  %89 = sext i32 %88 to i64
  %90 = getelementptr inbounds i8, i8* %87, i64 %89
  %91 = load i8, i8* %90, align 1
  %92 = sext i8 %91 to i32
  %93 = call i32 (i8*, ...) @printf(i8* getelementptr inbounds ([4 x i8], [4 x i8]* @.str.1, i64 0, i64 0), i32 %92)
  store i32 1, i32* %5, align 4
  br label %98

94:                                               ; preds = %74
  br label %95

95:                                               ; preds = %94
  %96 = load i32, i32* %3, align 4
  %97 = add nsw i32 %96, 1
  store i32 %97, i32* %3, align 4
  br label %66

98:                                               ; preds = %86, %66
  %99 = load i32, i32* %5, align 4
  %100 = icmp eq i32 %99, 0
  br i1 %100, label %101, label %103

101:                                              ; preds = %98
  %102 = call i32 (i8*, ...) @printf(i8* getelementptr inbounds ([4 x i8], [4 x i8]* @.str.2, i64 0, i64 0))
  br label %103

103:                                              ; preds = %101, %98
  br label %104

104:                                              ; preds = %103
  %105 = load i32, i32* %2, align 4
  %106 = add nsw i32 %105, 1
  store i32 %106, i32* %2, align 4
  br label %14

107:                                              ; preds = %14
  ret void
}

declare dso_local i32 @__isoc99_scanf(i8*, ...) #1

; Function Attrs: nounwind
declare dso_local noalias i8* @malloc(i64) #2

declare dso_local i32 @gets(...) #1

declare dso_local i32 @printf(i8*, ...) #1


!llvm.module.flags = !{!0}
!llvm.ident = !{!1}

!0 = !{i32 1, !"wchar_size", i32 4}
!1 = !{!"clang version 10.0.0-4ubuntu1 "}
